target datalayout = "e-m:e-p270:32:32-p271:32:32-p272:64:64-i64:64-i128:128-f80:128-n8:16:32:64-S128"
target triple = "x86_64-pc-linux-gnu"

%struct.SDL_IOStreamInterface = type { i32, ptr, ptr, ptr, ptr, ptr, ptr }
%struct.stat = type { i64, i64, i64, i32, i32, i32, i32, i64, i64, i64, i64, %struct.timespec, %struct.timespec, %struct.timespec, [3 x i64] }
%struct.timespec = type { i64, i64 }
%struct.IOStreamFDData = type { i32, i8, i8 }
%struct.SDL_IOStream = type { %struct.SDL_IOStreamInterface, ptr, i32, i32 }

@.str = private unnamed_addr constant [29 x i8] c"SDL.iostream.file_descriptor\00", align 1
@.str.2 = private unnamed_addr constant [26 x i8] c"Parameter '%s' is invalid\00", align 1
@.str.11 = private unnamed_addr constant [8 x i8] c"context\00", align 1
@.str.12 = private unnamed_addr constant [6 x i8] c"iface\00", align 1
@.str.13 = private unnamed_addr constant [67 x i8] c"Invalid interface, should be initialized with SDL_INIT_INTERFACE()\00", align 1

; Function Attrs: nounwind uwtable
define hidden i32 @SDL_GetIOProperties_REAL(ptr noundef %0) #0 {
  %2 = alloca i32, align 4
  %3 = alloca ptr, align 8
  store ptr %0, ptr %3, align 8
  %4 = load ptr, ptr %3, align 8
  %5 = icmp ne ptr %4, null
  br i1 %5, label %8, label %6

6:                                                ; preds = %1
  %7 = call zeroext i1 (ptr, ...) @SDL_SetError_REAL(ptr noundef @.str.2, ptr noundef @.str.11)
  store i32 0, ptr %2, align 4
  br label %21

8:                                                ; preds = %1
  %9 = load ptr, ptr %3, align 8
  %10 = getelementptr inbounds nuw %struct.SDL_IOStream, ptr %9, i32 0, i32 3
  %11 = load i32, ptr %10, align 4
  %12 = icmp eq i32 %11, 0
  br i1 %12, label %13, label %17

13:                                               ; preds = %8
  %14 = call i32 @SDL_CreateProperties_REAL()
  %15 = load ptr, ptr %3, align 8
  %16 = getelementptr inbounds nuw %struct.SDL_IOStream, ptr %15, i32 0, i32 3
  store i32 %14, ptr %16, align 4
  br label %17

17:                                               ; preds = %13, %8
  %18 = load ptr, ptr %3, align 8
  %19 = getelementptr inbounds nuw %struct.SDL_IOStream, ptr %18, i32 0, i32 3
  %20 = load i32, ptr %19, align 4
  store i32 %20, ptr %2, align 4
  br label %21

21:                                               ; preds = %17, %6
  %22 = load i32, ptr %2, align 4
  ret i32 %22
}

; Function Attrs: nounwind uwtable
define hidden ptr @SDL_OpenIO_REAL(ptr noundef %0, ptr noundef %1) #0 {
  %3 = alloca ptr, align 8
  %4 = alloca ptr, align 8
  %5 = alloca ptr, align 8
  %6 = alloca ptr, align 8
  store ptr %0, ptr %4, align 8
  store ptr %1, ptr %5, align 8
  %7 = load ptr, ptr %4, align 8
  %8 = icmp ne ptr %7, null
  br i1 %8, label %11, label %9

9:                                                ; preds = %2
  %10 = call zeroext i1 (ptr, ...) @SDL_SetError_REAL(ptr noundef @.str.2, ptr noundef @.str.12)
  store ptr null, ptr %3, align 8
  br label %32

11:                                               ; preds = %2
  %12 = load ptr, ptr %4, align 8
  %13 = getelementptr inbounds nuw %struct.SDL_IOStreamInterface, ptr %12, i32 0, i32 0
  %14 = load i32, ptr %13, align 8
  %15 = zext i32 %14 to i64
  %16 = icmp ult i64 %15, 56
  br i1 %16, label %17, label %19

17:                                               ; preds = %11
  %18 = call zeroext i1 (ptr, ...) @SDL_SetError_REAL(ptr noundef @.str.13)
  store ptr null, ptr %3, align 8
  br label %32

19:                                               ; preds = %11
  call void @llvm.lifetime.start.p0(i64 8, ptr %6) #11
  %20 = call noalias ptr @SDL_calloc_REAL(i64 noundef 1, i64 noundef 72) #12
  store ptr %20, ptr %6, align 8
  %21 = load ptr, ptr %6, align 8
  %22 = icmp ne ptr %21, null
  br i1 %22, label %23, label %30

23:                                               ; preds = %19
  %24 = load ptr, ptr %6, align 8
  %25 = getelementptr inbounds nuw %struct.SDL_IOStream, ptr %24, i32 0, i32 0
  %26 = load ptr, ptr %4, align 8
  call void @llvm.memcpy.p0.p0.i64(ptr align 8 %25, ptr align 8 %26, i64 56, i1 false)
  %27 = load ptr, ptr %5, align 8
  %28 = load ptr, ptr %6, align 8
  %29 = getelementptr inbounds nuw %struct.SDL_IOStream, ptr %28, i32 0, i32 1
  store ptr %27, ptr %29, align 8
  br label %30

30:                                               ; preds = %23, %19
  %31 = load ptr, ptr %6, align 8
  store ptr %31, ptr %3, align 8
  call void @llvm.lifetime.end.p0(i64 8, ptr %6) #11
  br label %32

32:                                               ; preds = %30, %17, %9
  %33 = load ptr, ptr %3, align 8
  ret ptr %33
}

; Function Attrs: nounwind uwtable
define hidden ptr @SDL_IOFromFD(i32 noundef %0, i1 noundef zeroext %1) #0 {
  %3 = alloca ptr, align 8
  %4 = alloca i32, align 4
  %5 = alloca i8, align 1
  %6 = alloca ptr, align 8
  %7 = alloca i32, align 4
  %8 = alloca %struct.SDL_IOStreamInterface, align 8
  %9 = alloca %struct.stat, align 8
  %10 = alloca ptr, align 8
  %11 = alloca i32, align 4
  store i32 %0, ptr %4, align 4
  %12 = zext i1 %1 to i8
  store i8 %12, ptr %5, align 1
  call void @llvm.lifetime.start.p0(i64 8, ptr %6) #11
  %13 = call noalias ptr @SDL_calloc_REAL(i64 noundef 1, i64 noundef 8) #12
  store ptr %13, ptr %6, align 8
  %14 = load ptr, ptr %6, align 8
  %15 = icmp ne ptr %14, null
  br i1 %15, label %23, label %16

16:                                               ; preds = %2
  %17 = load i8, ptr %5, align 1, !range !3, !noundef !4
  %18 = trunc i8 %17 to i1
  br i1 %18, label %19, label %22

19:                                               ; preds = %16
  %20 = load i32, ptr %4, align 4
  %21 = call i32 @close(i32 noundef %20)
  br label %22

22:                                               ; preds = %19, %16
  store ptr null, ptr %3, align 8
  store i32 1, ptr %7, align 4
  br label %76

23:                                               ; preds = %2
  call void @llvm.lifetime.start.p0(i64 56, ptr %8) #11
  br label %24

24:                                               ; preds = %23
  call void @llvm.memset.p0.i64(ptr align 8 %8, i8 0, i64 56, i1 false)
  %25 = getelementptr inbounds nuw %struct.SDL_IOStreamInterface, ptr %8, i32 0, i32 0
  store i32 56, ptr %25, align 8
  br label %26

26:                                               ; preds = %24
  br label %27

27:                                               ; preds = %26
  %28 = getelementptr inbounds nuw %struct.SDL_IOStreamInterface, ptr %8, i32 0, i32 2
  store ptr @fd_seek, ptr %28, align 8
  %29 = getelementptr inbounds nuw %struct.SDL_IOStreamInterface, ptr %8, i32 0, i32 3
  store ptr @fd_read, ptr %29, align 8
  %30 = getelementptr inbounds nuw %struct.SDL_IOStreamInterface, ptr %8, i32 0, i32 4
  store ptr @fd_write, ptr %30, align 8
  %31 = getelementptr inbounds nuw %struct.SDL_IOStreamInterface, ptr %8, i32 0, i32 5
  store ptr @fd_flush, ptr %31, align 8
  %32 = getelementptr inbounds nuw %struct.SDL_IOStreamInterface, ptr %8, i32 0, i32 6
  store ptr @fd_close, ptr %32, align 8
  %33 = load i32, ptr %4, align 4
  %34 = load ptr, ptr %6, align 8
  %35 = getelementptr inbounds nuw %struct.IOStreamFDData, ptr %34, i32 0, i32 0
  store i32 %33, ptr %35, align 4
  %36 = load i8, ptr %5, align 1, !range !3, !noundef !4
  %37 = trunc i8 %36 to i1
  %38 = load ptr, ptr %6, align 8
  %39 = getelementptr inbounds nuw %struct.IOStreamFDData, ptr %38, i32 0, i32 1
  %40 = zext i1 %37 to i8
  store i8 %40, ptr %39, align 4
  call void @llvm.lifetime.start.p0(i64 144, ptr %9) #11
  %41 = load i32, ptr %4, align 4
  %42 = call i32 @fstat(i32 noundef %41, ptr noundef %9) #11
  %43 = icmp eq i32 %42, 0
  br i1 %43, label %44, label %49

44:                                               ; preds = %27
  %45 = getelementptr inbounds nuw %struct.stat, ptr %9, i32 0, i32 3
  %46 = load i32, ptr %45, align 8
  %47 = and i32 %46, 61440
  %48 = icmp eq i32 %47, 32768
  br label %49

49:                                               ; preds = %44, %27
  %50 = phi i1 [ false, %27 ], [ %48, %44 ]
  %51 = load ptr, ptr %6, align 8
  %52 = getelementptr inbounds nuw %struct.IOStreamFDData, ptr %51, i32 0, i32 2
  %53 = zext i1 %50 to i8
  store i8 %53, ptr %52, align 1
  call void @llvm.lifetime.start.p0(i64 8, ptr %10) #11
  %54 = load ptr, ptr %6, align 8
  %55 = call ptr @SDL_OpenIO_REAL(ptr noundef %8, ptr noundef %54)
  store ptr %55, ptr %10, align 8
  %56 = load ptr, ptr %10, align 8
  %57 = icmp ne ptr %56, null
  br i1 %57, label %63, label %58

58:                                               ; preds = %49
  %59 = getelementptr inbounds nuw %struct.SDL_IOStreamInterface, ptr %8, i32 0, i32 6
  %60 = load ptr, ptr %59, align 8
  %61 = load ptr, ptr %6, align 8
  %62 = call zeroext i1 %60(ptr noundef %61)
  br label %74

63:                                               ; preds = %49
  call void @llvm.lifetime.start.p0(i64 4, ptr %11) #11
  %64 = load ptr, ptr %10, align 8
  %65 = call i32 @SDL_GetIOProperties_REAL(ptr noundef %64)
  store i32 %65, ptr %11, align 4
  %66 = load i32, ptr %11, align 4
  %67 = icmp ne i32 %66, 0
  br i1 %67, label %68, label %73

68:                                               ; preds = %63
  %69 = load i32, ptr %11, align 4
  %70 = load i32, ptr %4, align 4
  %71 = sext i32 %70 to i64
  %72 = call zeroext i1 @SDL_SetNumberProperty_REAL(i32 noundef %69, ptr noundef @.str, i64 noundef %71)
  br label %73

73:                                               ; preds = %68, %63
  call void @llvm.lifetime.end.p0(i64 4, ptr %11) #11
  br label %74

74:                                               ; preds = %73, %58
  %75 = load ptr, ptr %10, align 8
  store ptr %75, ptr %3, align 8
  store i32 1, ptr %7, align 4
  call void @llvm.lifetime.end.p0(i64 8, ptr %10) #11
  call void @llvm.lifetime.end.p0(i64 144, ptr %9) #11
  call void @llvm.lifetime.end.p0(i64 56, ptr %8) #11
  br label %76

76:                                               ; preds = %74, %22
  call void @llvm.lifetime.end.p0(i64 8, ptr %6) #11
  %77 = load ptr, ptr %3, align 8
  ret ptr %77
}