; Function Attrs: nounwind uwtable
define hidden noalias noundef ptr @SDL_IOFromFD(i32 noundef %0, i1 noundef zeroext %1) local_unnamed_addr #0 {
  %3 = alloca %struct.stat, align 8
  %4 = tail call noalias dereferenceable_or_null(8) ptr @SDL_calloc_REAL(i64 noundef 1, i64 noundef 8) #17
  %.not = icmp eq ptr %4, null
  br i1 %.not, label %5, label %8

5:                                                ; preds = %2
  br i1 %1, label %6, label %39

6:                                                ; preds = %5
  %7 = tail call i32 @close(i32 noundef %0) #18
  br label %39

8:                                                ; preds = %2
  %9 = zext i1 %1 to i8
  store i32 %0, ptr %4, align 4
  %10 = getelementptr inbounds nuw i8, ptr %4, i64 4
  store i8 %9, ptr %10, align 4
  call void @llvm.lifetime.start.p0(i64 144, ptr nonnull %3) #18
  %11 = call i32 @fstat(i32 noundef %0, ptr noundef nonnull %3) #18
  %12 = icmp eq i32 %11, 0
  %13 = getelementptr inbounds nuw i8, ptr %3, i64 24
  %14 = load i32, ptr %13, align 8
  %15 = and i32 %14, 61440
  %16 = icmp eq i32 %15, 32768
  %17 = select i1 %12, i1 %16, i1 false
  %18 = getelementptr inbounds nuw i8, ptr %4, i64 5
  %19 = zext i1 %17 to i8
  store i8 %19, ptr %18, align 1
  %20 = tail call noalias dereferenceable_or_null(72) ptr @SDL_calloc_REAL(i64 noundef 1, i64 noundef 72) #17
  %.not11.i = icmp eq ptr %20, null
  br i1 %.not11.i, label %21, label %30

21:                                               ; preds = %8
  br i1 %1, label %22, label %fd_close.exit

22:                                               ; preds = %21
  %23 = tail call i32 @close(i32 noundef %0) #18
  %24 = icmp slt i32 %23, 0
  br i1 %24, label %25, label %fd_close.exit

25:                                               ; preds = %22
  %26 = tail call ptr @__errno_location() #19
  %27 = load i32, ptr %26, align 4
  %28 = tail call ptr @strerror(i32 noundef %27) #18
  %29 = tail call zeroext i1 (ptr, ...) @SDL_SetError_REAL(ptr noundef nonnull @.str.24, ptr noundef %28) #18
  br label %fd_close.exit

fd_close.exit:                                    ; preds = %21, %22, %25
  tail call void @SDL_free_REAL(ptr noundef nonnull %4) #18
  br label %38

30:                                               ; preds = %8
  store i32 56, ptr %20, align 8
  %.sroa.6.0..sroa_idx = getelementptr inbounds nuw i8, ptr %20, i64 4
  tail call void @llvm.memset.p0.i64(ptr noundef nonnull align 4 dereferenceable(12) %.sroa.6.0..sroa_idx, i8 0, i64 12, i1 false)
  %.sroa.623.0..sroa_idx = getelementptr inbounds nuw i8, ptr %20, i64 16
  store ptr @fd_seek, ptr %.sroa.623.0..sroa_idx, align 8
  %.sroa.7.0..sroa_idx = getelementptr inbounds nuw i8, ptr %20, i64 24
  store ptr @fd_read, ptr %.sroa.7.0..sroa_idx, align 8
  %.sroa.8.0..sroa_idx = getelementptr inbounds nuw i8, ptr %20, i64 32
  store ptr @fd_write, ptr %.sroa.8.0..sroa_idx, align 8
  %.sroa.9.0..sroa_idx = getelementptr inbounds nuw i8, ptr %20, i64 40
  store ptr @fd_flush, ptr %.sroa.9.0..sroa_idx, align 8
  %.sroa.10.0..sroa_idx = getelementptr inbounds nuw i8, ptr %20, i64 48
  store ptr @fd_close, ptr %.sroa.10.0..sroa_idx, align 8
  %31 = getelementptr inbounds nuw i8, ptr %20, i64 56
  store ptr %4, ptr %31, align 8
  %32 = getelementptr inbounds nuw i8, ptr %20, i64 68
  %33 = load i32, ptr %32, align 4
  %34 = icmp eq i32 %33, 0
  br i1 %34, label %SDL_GetIOProperties_REAL.exit, label %SDL_GetIOProperties_REAL.exit.thread

SDL_GetIOProperties_REAL.exit:                    ; preds = %30
  %35 = tail call i32 @SDL_CreateProperties_REAL() #18
  store i32 %35, ptr %32, align 4
  %.not21 = icmp eq i32 %35, 0
  br i1 %.not21, label %38, label %SDL_GetIOProperties_REAL.exit.thread

SDL_GetIOProperties_REAL.exit.thread:             ; preds = %30, %SDL_GetIOProperties_REAL.exit
  %.0.i2231 = phi i32 [ %35, %SDL_GetIOProperties_REAL.exit ], [ %33, %30 ]
  %36 = sext i32 %0 to i64
  %37 = tail call zeroext i1 @SDL_SetNumberProperty_REAL(i32 noundef %.0.i2231, ptr noundef nonnull @.str, i64 noundef %36) #18
  br label %38

38:                                               ; preds = %SDL_GetIOProperties_REAL.exit, %SDL_GetIOProperties_REAL.exit.thread, %fd_close.exit
  call void @llvm.lifetime.end.p0(i64 144, ptr nonnull %3) #18
  br label %39

39:                                               ; preds = %5, %6, %38
  %.0 = phi ptr [ %20, %38 ], [ null, %6 ], [ null, %5 ]
  ret ptr %.0
}